; Function Attrs: nofree norecurse nosync nounwind memory(readwrite, inaccessiblemem: none) uwtable
define void @Saig_CollectSatValues(ptr noundef readonly captures(none) %0, ptr noundef readonly captures(none) %1, ptr noundef readonly captures(none) %2, ptr noundef readonly captures(none) %3) local_unnamed_addr #6 {
  %5 = load ptr, ptr %1, align 8, !tbaa !100
  %6 = getelementptr inbounds nuw i8, ptr %5, i64 32
  %7 = load ptr, ptr %6, align 8, !tbaa !25
  %8 = getelementptr i8, ptr %7, i64 4
  %.val24 = load i32, ptr %8, align 4, !tbaa !26
  %9 = icmp sgt i32 %.val24, 0
  br i1 %9, label %.lr.ph, label %.critedge

.lr.ph:                                           ; preds = %4
  %10 = getelementptr i8, ptr %7, i64 8
  %.val20 = load ptr, ptr %10, align 8, !tbaa !40
  %11 = getelementptr i8, ptr %2, i64 8
  %12 = getelementptr inbounds nuw i8, ptr %1, i64 32
  %13 = getelementptr i8, ptr %0, i64 328
  br label %14

14:                                               ; preds = %.lr.ph, %45
  %.val27 = phi i32 [ %.val24, %.lr.ph ], [ %.val, %45 ]
  %indvars.iv = phi i64 [ 0, %.lr.ph ], [ %indvars.iv.next, %45 ]
  %15 = getelementptr inbounds nuw ptr, ptr %.val20, i64 %indvars.iv
  %16 = load ptr, ptr %15, align 8, !tbaa !28
  %17 = icmp eq ptr %16, null
  br i1 %17, label %45, label %18

18:                                               ; preds = %14
  %19 = getelementptr i8, ptr %16, i64 24
  %.val21 = load i64, ptr %19, align 8
  %20 = trunc i64 %.val21 to i32
  %21 = and i32 %20, 7
  %22 = add nsw i32 %21, -5
  %narrow.i = icmp ult i32 %22, 2
  %23 = and i64 %.val21, 7
  %.not = icmp eq i64 %23, 2
  %or.cond = or i1 %.not, %narrow.i
  br i1 %or.cond, label %24, label %45

24:                                               ; preds = %18
  %.val19 = load ptr, ptr %11, align 8, !tbaa !40
  %25 = getelementptr inbounds nuw ptr, ptr %.val19, i64 %indvars.iv
  %26 = load ptr, ptr %25, align 8, !tbaa !28
  %27 = load i32, ptr %3, align 4, !tbaa !9
  %28 = ashr i32 %27, 5
  %29 = sext i32 %28 to i64
  %30 = getelementptr inbounds i32, ptr %26, i64 %29
  %31 = load i32, ptr %30, align 4, !tbaa !9
  %32 = and i32 %27, 31
  %33 = lshr i32 %31, %32
  %34 = load ptr, ptr %12, align 8, !tbaa !84
  %35 = getelementptr inbounds nuw i32, ptr %34, i64 %indvars.iv
  %36 = load i32, ptr %35, align 4, !tbaa !9
  %.val23 = load ptr, ptr %13, align 8, !tbaa !101
  %37 = sext i32 %36 to i64
  %38 = getelementptr inbounds i32, ptr %.val23, i64 %37
  %39 = load i32, ptr %38, align 4, !tbaa !9
  %40 = trunc i32 %33 to i1
  %41 = icmp ne i32 %39, 1
  %.not18 = xor i1 %41, %40
  br i1 %.not18, label %45, label %42

42:                                               ; preds = %24
  %43 = shl nuw i32 1, %32
  %44 = xor i32 %43, %31
  store i32 %44, ptr %30, align 4, !tbaa !9
  %.val.pre = load i32, ptr %8, align 4, !tbaa !26
  br label %45

45:                                               ; preds = %18, %14, %42, %24
  %.val = phi i32 [ %.val27, %18 ], [ %.val27, %14 ], [ %.val.pre, %42 ], [ %.val27, %24 ]
  %indvars.iv.next = add nuw nsw i64 %indvars.iv, 1
  %46 = sext i32 %.val to i64
  %47 = icmp slt i64 %indvars.iv.next, %46
  br i1 %47, label %14, label %.critedge, !llvm.loop !112

.critedge:                                        ; preds = %45, %4
  ret void
}